target datalayout = "e-m:e-p270:32:32-p271:32:32-p272:64:64-i64:64-i128:128-f80:128-n8:16:32:64-S128"
target triple = "x86_64-pc-linux-gnu"

%struct.Pdr_Obl_t_ = type { i32, i32, i32, ptr, ptr, ptr }

; Function Attrs: nounwind uwtable
define ptr @Pdr_OblStart(i32 noundef %0, i32 noundef %1, ptr noundef %2, ptr noundef %3) #0 {
  %5 = alloca i32, align 4
  %6 = alloca i32, align 4
  %7 = alloca ptr, align 8
  %8 = alloca ptr, align 8
  %9 = alloca ptr, align 8
  store i32 %0, ptr %5, align 4
  store i32 %1, ptr %6, align 4
  store ptr %2, ptr %7, align 8
  store ptr %3, ptr %8, align 8
  %10 = call noalias ptr @malloc(i64 noundef 40) #10
  store ptr %10, ptr %9, align 8
  %11 = load i32, ptr %5, align 4
  %12 = load ptr, ptr %9, align 8
  %13 = getelementptr inbounds %struct.Pdr_Obl_t_, ptr %12, i32 0, i32 0
  store i32 %11, ptr %13, align 8
  %14 = load i32, ptr %6, align 4
  %15 = load ptr, ptr %9, align 8
  %16 = getelementptr inbounds %struct.Pdr_Obl_t_, ptr %15, i32 0, i32 1
  store i32 %14, ptr %16, align 4
  %17 = load ptr, ptr %9, align 8
  %18 = getelementptr inbounds %struct.Pdr_Obl_t_, ptr %17, i32 0, i32 2
  store i32 1, ptr %18, align 8
  %19 = load ptr, ptr %7, align 8
  %20 = load ptr, ptr %9, align 8
  %21 = getelementptr inbounds %struct.Pdr_Obl_t_, ptr %20, i32 0, i32 3
  store ptr %19, ptr %21, align 8
  %22 = load ptr, ptr %8, align 8
  %23 = load ptr, ptr %9, align 8
  %24 = getelementptr inbounds %struct.Pdr_Obl_t_, ptr %23, i32 0, i32 4
  store ptr %22, ptr %24, align 8
  %25 = load ptr, ptr %9, align 8
  %26 = getelementptr inbounds %struct.Pdr_Obl_t_, ptr %25, i32 0, i32 5
  store ptr null, ptr %26, align 8
  %27 = load ptr, ptr %9, align 8
  ret ptr %27
}