; Function Attrs: mustprogress nofree nounwind willreturn memory(write, argmem: none, inaccessiblemem: readwrite) uwtable
define noalias noundef ptr @Pdr_OblStart(i32 noundef %0, i32 noundef %1, ptr noundef %2, ptr noundef %3) local_unnamed_addr #13 {
  %5 = tail call noalias dereferenceable_or_null(40) ptr @malloc(i64 noundef 40) #26
  store i32 %0, ptr %5, align 8
  %6 = getelementptr inbounds nuw i8, ptr %5, i64 4
  store i32 %1, ptr %6, align 4
  %7 = getelementptr inbounds nuw i8, ptr %5, i64 8
  store i32 1, ptr %7, align 8
  %8 = getelementptr inbounds nuw i8, ptr %5, i64 16
  store ptr %2, ptr %8, align 8
  %9 = getelementptr inbounds nuw i8, ptr %5, i64 24
  store ptr %3, ptr %9, align 8
  %10 = getelementptr inbounds nuw i8, ptr %5, i64 32
  store ptr null, ptr %10, align 8
  ret ptr %5
}